(dp0
Vengine
p1
Vlualatex
p2
sVpackages
p3
c__builtin__
set
p4
((lp5
Vfootmisc
p6
aVmathtools
p7
aVgraphicx
p8
aVfontspec
p9
aVparskip
p10
atp11
Rp12
sVfiles_with_guttermarks
p13
g4
((lp14
V/Users/michael/thesis2.0/Catchall/./derk.tex
p15
aS'derk.tex'
p16
atp17
Rp18
sVsynctex
p19
I01
s.