(dp0
Vengine
p1
Vlualatex
p2
sVpackages
p3
c__builtin__
set
p4
((lp5
Vtikz
p6
aVbiblatex
p7
aVmhchem
p8
aVblindtext
p9
aVappendix
p10
aVfootmisc
p11
aVparskip
p12
aVgraphicx
p13
aVmathtools
p14
atp15
Rp16
sVfiles_with_guttermarks
p17
g4
((lp18
S'master.tex'
p19
atp20
Rp21
sVsynctex
p22
I01
s.